target datalayout = "e-m:e-p270:32:32-p271:32:32-p272:64:64-i64:64-i128:128-f80:128-n8:16:32:64-S128"
target triple = "x86_64-unknown-linux-gnu"

%struct.EHCIState = type { %struct.USBBus, ptr, ptr, %struct.MemoryRegion, ptr, %struct.MemoryRegion, %struct.MemoryRegion, %struct.MemoryRegion, i32, i8, i16, i16, i16, i16, i32, [16 x i8], %union.anon.5, [6 x i32], ptr, ptr, i8, i32, i32, [6 x %struct.USBPort], [6 x ptr], i32, i32, %union.EHCIQueueHead, %union.EHCIQueueHead, i32, i32, %struct.USBPacket, %struct.QEMUSGList, i64, i32, i32, i8, ptr }
%struct.USBBus = type { %struct.BusState, ptr, i32, i32, i32, %union.anon, %union.anon.0, %union.anon.1 }
%struct.BusState = type { %struct.Object, ptr, ptr, ptr, i32, i8, i8, i32, %union.BusChildHead, %struct.BusStateEntry, %struct.ResettableState }
%struct.Object = type { ptr, ptr, ptr, i32, ptr }
%union.BusChildHead = type { %struct.QTailQLink }
%struct.QTailQLink = type { ptr, ptr }
%struct.BusStateEntry = type { ptr, ptr }
%struct.ResettableState = type { i32, i8, i8 }
%union.anon = type { %struct.QTailQLink }
%union.anon.0 = type { %struct.QTailQLink }
%union.anon.1 = type { %struct.QTailQLink }
%struct.MemoryRegion = type { %struct.Object, i8, i8, i8, i8, i8, i8, i8, i8, i8, i8, ptr, ptr, ptr, ptr, ptr, ptr, i32, i128, i64, ptr, i64, i8, i8, i8, i8, i8, ptr, i64, i32, %union.anon.2, %union.anon.3, %union.anon.4, ptr, i32, ptr, ptr, i8 }
%union.anon.2 = type { %struct.QTailQLink }
%union.anon.3 = type { %struct.QTailQLink }
%union.anon.4 = type { %struct.QTailQLink }
%union.anon.5 = type { [17 x i32] }
%struct.USBPort = type { ptr, i32, i32, [16 x i8], ptr, ptr, i32, %union.anon.6 }
%union.anon.6 = type { %struct.QTailQLink }
%union.EHCIQueueHead = type { %struct.QTailQLink }
%struct.USBPacket = type { i32, i64, ptr, i32, %struct.QEMUIOVector, i64, i8, i8, i32, i32, i32, ptr, %union.anon.10, %union.anon.11 }
%struct.QEMUIOVector = type { ptr, i32, %union.anon.7 }
%union.anon.7 = type { %struct.anon.8 }
%struct.anon.8 = type { i32, %struct.iovec }
%struct.iovec = type { ptr, i64 }
%union.anon.10 = type { %struct.QTailQLink }
%union.anon.11 = type { %struct.QTailQLink }
%struct.QEMUSGList = type { ptr, i32, i32, i64, ptr, ptr }
%struct.EHCIQueue = type { ptr, %union.anon.16, i32, i64, i32, i32, %struct.EHCIqh, i32, i32, i32, ptr, %union.anon.17 }
%union.anon.16 = type { %struct.QTailQLink }
%struct.EHCIqh = type { i32, i32, i32, i32, i32, i32, i32, [5 x i32] }
%union.anon.17 = type { %struct.QTailQLink }
%struct.timeval = type { i64, i64 }

@trace_events_enabled_count = external global i32, align 4
@message_with_timestamp = external global i8, align 1
@qemu_loglevel = external global i32, align 4
@.str.37 = private unnamed_addr constant [5 x i8] c"free\00", align 1
@_TRACE_USB_EHCI_QUEUE_ACTION_DSTATE = external global i16, align 2
@.str.38 = private unnamed_addr constant [45 x i8] c"%d@%zu.%06zu:usb_ehci_queue_action q %p: %s\0A\00", align 1
@.str.39 = private unnamed_addr constant [32 x i8] c"usb_ehci_queue_action q %p: %s\0A\00", align 1
@_TRACE_USB_EHCI_GUEST_BUG_DSTATE = external global i16, align 2
@.str.88 = private unnamed_addr constant [36 x i8] c"%d@%zu.%06zu:usb_ehci_guest_bug %s\0A\00", align 1
@.str.89 = private unnamed_addr constant [23 x i8] c"usb_ehci_guest_bug %s\0A\00", align 1

; Function Attrs: nounwind sspstrong uwtable
define internal void @_nocheck__trace_usb_ehci_guest_bug(ptr noundef %reason) #0 {
entry:
  %reason.addr = alloca ptr, align 8
  %_now = alloca %struct.timeval, align 8
  store ptr %reason, ptr %reason.addr, align 8
  %0 = load i32, ptr @trace_events_enabled_count, align 4
  %tobool = icmp ne i32 %0, 0
  %lnot = xor i1 %tobool, true
  %lnot1 = xor i1 %lnot, true
  %lnot.ext = zext i1 %lnot1 to i32
  %conv = sext i32 %lnot.ext to i64
  %tobool2 = icmp ne i64 %conv, 0
  br i1 %tobool2, label %land.lhs.true, label %if.end11

land.lhs.true:                                    ; preds = %entry
  %1 = load i16, ptr @_TRACE_USB_EHCI_GUEST_BUG_DSTATE, align 2
  %conv3 = zext i16 %1 to i32
  %tobool4 = icmp ne i32 %conv3, 0
  br i1 %tobool4, label %land.lhs.true5, label %if.end11

land.lhs.true5:                                   ; preds = %land.lhs.true
  %call = call zeroext i1 @qemu_loglevel_mask(i32 noundef 32768)
  br i1 %call, label %if.then, label %if.end11

if.then:                                          ; preds = %land.lhs.true5
  %2 = load i8, ptr @message_with_timestamp, align 1
  %tobool7 = trunc i8 %2 to i1
  br i1 %tobool7, label %if.then8, label %if.else

if.then8:                                         ; preds = %if.then
  %call9 = call i32 @gettimeofday(ptr noundef %_now, ptr noundef null) #10
  %call10 = call i32 @qemu_get_thread_id()
  %tv_sec = getelementptr inbounds %struct.timeval, ptr %_now, i32 0, i32 0
  %3 = load i64, ptr %tv_sec, align 8
  %tv_usec = getelementptr inbounds %struct.timeval, ptr %_now, i32 0, i32 1
  %4 = load i64, ptr %tv_usec, align 8
  %5 = load ptr, ptr %reason.addr, align 8
  call void (ptr, ...) @qemu_log(ptr noundef @.str.88, i32 noundef %call10, i64 noundef %3, i64 noundef %4, ptr noundef %5)
  br label %if.end

if.else:                                          ; preds = %if.then
  %6 = load ptr, ptr %reason.addr, align 8
  call void (ptr, ...) @qemu_log(ptr noundef @.str.89, ptr noundef %6)
  br label %if.end

if.end:                                           ; preds = %if.else, %if.then8
  br label %if.end11

if.end11:                                         ; preds = %if.end, %land.lhs.true5, %land.lhs.true, %entry
  ret void
}

; Function Attrs: nounwind sspstrong uwtable
define internal zeroext i1 @qemu_loglevel_mask(i32 noundef %mask) #0 {
entry:
  %mask.addr = alloca i32, align 4
  store i32 %mask, ptr %mask.addr, align 4
  %0 = load i32, ptr @qemu_loglevel, align 4
  %1 = load i32, ptr %mask.addr, align 4
  %and = and i32 %0, %1
  %cmp = icmp ne i32 %and, 0
  ret i1 %cmp
}

; Function Attrs: nounwind sspstrong uwtable
define internal void @trace_usb_ehci_guest_bug(ptr noundef %reason) #0 {
entry:
  %reason.addr = alloca ptr, align 8
  store ptr %reason, ptr %reason.addr, align 8
  %0 = load ptr, ptr %reason.addr, align 8
  call void @_nocheck__trace_usb_ehci_guest_bug(ptr noundef %0)
  ret void
}

; Function Attrs: nounwind sspstrong uwtable
define internal void @_nocheck__trace_usb_ehci_queue_action(ptr noundef %q, ptr noundef %action) #0 {
entry:
  %q.addr = alloca ptr, align 8
  %action.addr = alloca ptr, align 8
  %_now = alloca %struct.timeval, align 8
  store ptr %q, ptr %q.addr, align 8
  store ptr %action, ptr %action.addr, align 8
  %0 = load i32, ptr @trace_events_enabled_count, align 4
  %tobool = icmp ne i32 %0, 0
  %lnot = xor i1 %tobool, true
  %lnot1 = xor i1 %lnot, true
  %lnot.ext = zext i1 %lnot1 to i32
  %conv = sext i32 %lnot.ext to i64
  %tobool2 = icmp ne i64 %conv, 0
  br i1 %tobool2, label %land.lhs.true, label %if.end11

land.lhs.true:                                    ; preds = %entry
  %1 = load i16, ptr @_TRACE_USB_EHCI_QUEUE_ACTION_DSTATE, align 2
  %conv3 = zext i16 %1 to i32
  %tobool4 = icmp ne i32 %conv3, 0
  br i1 %tobool4, label %land.lhs.true5, label %if.end11

land.lhs.true5:                                   ; preds = %land.lhs.true
  %call = call zeroext i1 @qemu_loglevel_mask(i32 noundef 32768)
  br i1 %call, label %if.then, label %if.end11

if.then:                                          ; preds = %land.lhs.true5
  %2 = load i8, ptr @message_with_timestamp, align 1
  %tobool7 = trunc i8 %2 to i1
  br i1 %tobool7, label %if.then8, label %if.else

if.then8:                                         ; preds = %if.then
  %call9 = call i32 @gettimeofday(ptr noundef %_now, ptr noundef null) #10
  %call10 = call i32 @qemu_get_thread_id()
  %tv_sec = getelementptr inbounds %struct.timeval, ptr %_now, i32 0, i32 0
  %3 = load i64, ptr %tv_sec, align 8
  %tv_usec = getelementptr inbounds %struct.timeval, ptr %_now, i32 0, i32 1
  %4 = load i64, ptr %tv_usec, align 8
  %5 = load ptr, ptr %q.addr, align 8
  %6 = load ptr, ptr %action.addr, align 8
  call void (ptr, ...) @qemu_log(ptr noundef @.str.38, i32 noundef %call10, i64 noundef %3, i64 noundef %4, ptr noundef %5, ptr noundef %6)
  br label %if.end

if.else:                                          ; preds = %if.then
  %7 = load ptr, ptr %q.addr, align 8
  %8 = load ptr, ptr %action.addr, align 8
  call void (ptr, ...) @qemu_log(ptr noundef @.str.39, ptr noundef %7, ptr noundef %8)
  br label %if.end

if.end:                                           ; preds = %if.else, %if.then8
  br label %if.end11

if.end11:                                         ; preds = %if.end, %land.lhs.true5, %land.lhs.true, %entry
  ret void
}

; Function Attrs: nounwind sspstrong uwtable
define internal void @ehci_trace_guest_bug(ptr noundef %s, ptr noundef %message) #0 {
entry:
  %s.addr = alloca ptr, align 8
  %message.addr = alloca ptr, align 8
  store ptr %s, ptr %s.addr, align 8
  store ptr %message, ptr %message.addr, align 8
  %0 = load ptr, ptr %message.addr, align 8
  call void @trace_usb_ehci_guest_bug(ptr noundef %0)
  ret void
}

; Function Attrs: nounwind sspstrong uwtable
define internal void @trace_usb_ehci_queue_action(ptr noundef %q, ptr noundef %action) #0 {
entry:
  %q.addr = alloca ptr, align 8
  %action.addr = alloca ptr, align 8
  store ptr %q, ptr %q.addr, align 8
  store ptr %action, ptr %action.addr, align 8
  %0 = load ptr, ptr %q.addr, align 8
  %1 = load ptr, ptr %action.addr, align 8
  call void @_nocheck__trace_usb_ehci_queue_action(ptr noundef %0, ptr noundef %1)
  ret void
}

; Function Attrs: nounwind sspstrong uwtable
define internal void @ehci_free_queue(ptr noundef %q, ptr noundef %warn) #0 {
entry:
  %q.addr = alloca ptr, align 8
  %warn.addr = alloca ptr, align 8
  %head = alloca ptr, align 8
  %cancelled = alloca i32, align 4
  store ptr %q, ptr %q.addr, align 8
  store ptr %warn, ptr %warn.addr, align 8
  %0 = load ptr, ptr %q.addr, align 8
  %async = getelementptr inbounds %struct.EHCIQueue, ptr %0, i32 0, i32 4
  %1 = load i32, ptr %async, align 8
  %tobool = icmp ne i32 %1, 0
  br i1 %tobool, label %cond.true, label %cond.false

cond.true:                                        ; preds = %entry
  %2 = load ptr, ptr %q.addr, align 8
  %ehci = getelementptr inbounds %struct.EHCIQueue, ptr %2, i32 0, i32 0
  %3 = load ptr, ptr %ehci, align 8
  %aqueues = getelementptr inbounds %struct.EHCIState, ptr %3, i32 0, i32 27
  br label %cond.end

cond.false:                                       ; preds = %entry
  %4 = load ptr, ptr %q.addr, align 8
  %ehci1 = getelementptr inbounds %struct.EHCIQueue, ptr %4, i32 0, i32 0
  %5 = load ptr, ptr %ehci1, align 8
  %pqueues = getelementptr inbounds %struct.EHCIState, ptr %5, i32 0, i32 28
  br label %cond.end

cond.end:                                         ; preds = %cond.false, %cond.true
  %cond = phi ptr [ %aqueues, %cond.true ], [ %pqueues, %cond.false ]
  store ptr %cond, ptr %head, align 8
  %6 = load ptr, ptr %q.addr, align 8
  call void @trace_usb_ehci_queue_action(ptr noundef %6, ptr noundef @.str.37)
  %7 = load ptr, ptr %q.addr, align 8
  %call = call i32 @ehci_cancel_queue(ptr noundef %7)
  store i32 %call, ptr %cancelled, align 4
  %8 = load ptr, ptr %warn.addr, align 8
  %tobool2 = icmp ne ptr %8, null
  br i1 %tobool2, label %land.lhs.true, label %if.end

land.lhs.true:                                    ; preds = %cond.end
  %9 = load i32, ptr %cancelled, align 4
  %cmp = icmp sgt i32 %9, 0
  br i1 %cmp, label %if.then, label %if.end

if.then:                                          ; preds = %land.lhs.true
  %10 = load ptr, ptr %q.addr, align 8
  %ehci3 = getelementptr inbounds %struct.EHCIQueue, ptr %10, i32 0, i32 0
  %11 = load ptr, ptr %ehci3, align 8
  %12 = load ptr, ptr %warn.addr, align 8
  call void @ehci_trace_guest_bug(ptr noundef %11, ptr noundef %12)
  br label %if.end

if.end:                                           ; preds = %if.then, %land.lhs.true, %cond.end
  br label %do.body

do.body:                                          ; preds = %if.end
  %13 = load ptr, ptr %q.addr, align 8
  %next = getelementptr inbounds %struct.EHCIQueue, ptr %13, i32 0, i32 1
  %14 = load ptr, ptr %next, align 8
  %cmp4 = icmp ne ptr %14, null
  br i1 %cmp4, label %if.then5, label %if.else

if.then5:                                         ; preds = %do.body
  %15 = load ptr, ptr %q.addr, align 8
  %next6 = getelementptr inbounds %struct.EHCIQueue, ptr %15, i32 0, i32 1
  %tql_prev = getelementptr inbounds %struct.QTailQLink, ptr %next6, i32 0, i32 1
  %16 = load ptr, ptr %tql_prev, align 8
  %17 = load ptr, ptr %q.addr, align 8
  %next7 = getelementptr inbounds %struct.EHCIQueue, ptr %17, i32 0, i32 1
  %18 = load ptr, ptr %next7, align 8
  %next8 = getelementptr inbounds %struct.EHCIQueue, ptr %18, i32 0, i32 1
  %tql_prev9 = getelementptr inbounds %struct.QTailQLink, ptr %next8, i32 0, i32 1
  store ptr %16, ptr %tql_prev9, align 8
  br label %if.end13

if.else:                                          ; preds = %do.body
  %19 = load ptr, ptr %q.addr, align 8
  %next10 = getelementptr inbounds %struct.EHCIQueue, ptr %19, i32 0, i32 1
  %tql_prev11 = getelementptr inbounds %struct.QTailQLink, ptr %next10, i32 0, i32 1
  %20 = load ptr, ptr %tql_prev11, align 8
  %21 = load ptr, ptr %head, align 8
  %tql_prev12 = getelementptr inbounds %struct.QTailQLink, ptr %21, i32 0, i32 1
  store ptr %20, ptr %tql_prev12, align 8
  br label %if.end13

if.end13:                                         ; preds = %if.else, %if.then5
  %22 = load ptr, ptr %q.addr, align 8
  %next14 = getelementptr inbounds %struct.EHCIQueue, ptr %22, i32 0, i32 1
  %23 = load ptr, ptr %next14, align 8
  %24 = load ptr, ptr %q.addr, align 8
  %next15 = getelementptr inbounds %struct.EHCIQueue, ptr %24, i32 0, i32 1
  %tql_prev16 = getelementptr inbounds %struct.QTailQLink, ptr %next15, i32 0, i32 1
  %25 = load ptr, ptr %tql_prev16, align 8
  %tql_next = getelementptr inbounds %struct.QTailQLink, ptr %25, i32 0, i32 0
  store ptr %23, ptr %tql_next, align 8
  %26 = load ptr, ptr %q.addr, align 8
  %next17 = getelementptr inbounds %struct.EHCIQueue, ptr %26, i32 0, i32 1
  %tql_prev18 = getelementptr inbounds %struct.QTailQLink, ptr %next17, i32 0, i32 1
  store ptr null, ptr %tql_prev18, align 8
  %27 = load ptr, ptr %q.addr, align 8
  %next19 = getelementptr inbounds %struct.EHCIQueue, ptr %27, i32 0, i32 1
  %tql_next20 = getelementptr inbounds %struct.QTailQLink, ptr %next19, i32 0, i32 0
  store ptr null, ptr %tql_next20, align 8
  %28 = load ptr, ptr %q.addr, align 8
  %next21 = getelementptr inbounds %struct.EHCIQueue, ptr %28, i32 0, i32 1
  store ptr null, ptr %next21, align 8
  br label %do.end

do.end:                                           ; preds = %if.end13
  %29 = load ptr, ptr %q.addr, align 8
  call void @g_free(ptr noundef %29)
  ret void
}