; Function Attrs: nounwind sspstrong uwtable
define internal fastcc void @ehci_free_queue(ptr noundef nonnull %q, ptr noundef %warn) unnamed_addr #0 {
entry:
  %_now.i.i.i = alloca %struct.timeval, align 8
  %_now.i.i = alloca %struct.timeval, align 8
  %async = getelementptr inbounds nuw i8, ptr %q, i64 40
  %0 = load i32, ptr %async, align 8
  %tobool.not = icmp eq i32 %0, 0
  %1 = load ptr, ptr %q, align 8
  %. = select i1 %tobool.not, i64 1976, i64 1960
  %pqueues = getelementptr inbounds nuw i8, ptr %1, i64 %.
  call void @llvm.lifetime.start.p0(i64 16, ptr nonnull %_now.i.i)
  %2 = load i32, ptr @trace_events_enabled_count, align 4
  %tobool.i.i = icmp ne i32 %2, 0
  %3 = load i16, ptr @_TRACE_USB_EHCI_QUEUE_ACTION_DSTATE, align 2
  %tobool4.i.i = icmp ne i16 %3, 0
  %or.cond.i.i = select i1 %tobool.i.i, i1 %tobool4.i.i, i1 false
  br i1 %or.cond.i.i, label %land.lhs.true5.i.i, label %trace_usb_ehci_queue_action.exit

land.lhs.true5.i.i:                               ; preds = %entry
  %4 = load i32, ptr @qemu_loglevel, align 4
  %and.i.i.i = and i32 %4, 32768
  %cmp.i.not.i.i = icmp eq i32 %and.i.i.i, 0
  br i1 %cmp.i.not.i.i, label %trace_usb_ehci_queue_action.exit, label %if.then.i.i

if.then.i.i:                                      ; preds = %land.lhs.true5.i.i
  %5 = load i8, ptr @message_with_timestamp, align 1
  %tobool7.i.i = trunc i8 %5 to i1
  br i1 %tobool7.i.i, label %if.then8.i.i, label %if.else.i.i

if.then8.i.i:                                     ; preds = %if.then.i.i
  %call9.i.i = call i32 @gettimeofday(ptr noundef nonnull %_now.i.i, ptr noundef null) #17
  %call10.i.i = tail call i32 @qemu_get_thread_id() #17
  %6 = load i64, ptr %_now.i.i, align 8
  %tv_usec.i.i = getelementptr inbounds nuw i8, ptr %_now.i.i, i64 8
  %7 = load i64, ptr %tv_usec.i.i, align 8
  tail call void (ptr, ...) @qemu_log(ptr noundef nonnull @.str.38, i32 noundef %call10.i.i, i64 noundef %6, i64 noundef %7, ptr noundef nonnull %q, ptr noundef nonnull @.str.37) #17
  br label %trace_usb_ehci_queue_action.exit

if.else.i.i:                                      ; preds = %if.then.i.i
  tail call void (ptr, ...) @qemu_log(ptr noundef nonnull @.str.39, ptr noundef nonnull %q, ptr noundef nonnull @.str.37) #17
  br label %trace_usb_ehci_queue_action.exit

trace_usb_ehci_queue_action.exit:                 ; preds = %entry, %land.lhs.true5.i.i, %if.then8.i.i, %if.else.i.i
  call void @llvm.lifetime.end.p0(i64 16, ptr nonnull %_now.i.i)
  %call = tail call fastcc i32 @ehci_cancel_queue(ptr noundef nonnull %q)
  %tobool2 = icmp ne ptr %warn, null
  %cmp = icmp sgt i32 %call, 0
  %or.cond = select i1 %tobool2, i1 %cmp, i1 false
  br i1 %or.cond, label %if.then, label %do.body

if.then:                                          ; preds = %trace_usb_ehci_queue_action.exit
  call void @llvm.lifetime.start.p0(i64 16, ptr nonnull %_now.i.i.i)
  %8 = load i32, ptr @trace_events_enabled_count, align 4
  %tobool.i.i.i = icmp ne i32 %8, 0
  %9 = load i16, ptr @_TRACE_USB_EHCI_GUEST_BUG_DSTATE, align 2
  %tobool4.i.i.i = icmp ne i16 %9, 0
  %or.cond.i.i.i = select i1 %tobool.i.i.i, i1 %tobool4.i.i.i, i1 false
  br i1 %or.cond.i.i.i, label %land.lhs.true5.i.i.i, label %ehci_trace_guest_bug.exit

land.lhs.true5.i.i.i:                             ; preds = %if.then
  %10 = load i32, ptr @qemu_loglevel, align 4
  %and.i.i.i.i = and i32 %10, 32768
  %cmp.i.not.i.i.i = icmp eq i32 %and.i.i.i.i, 0
  br i1 %cmp.i.not.i.i.i, label %ehci_trace_guest_bug.exit, label %if.then.i.i.i

if.then.i.i.i:                                    ; preds = %land.lhs.true5.i.i.i
  %11 = load i8, ptr @message_with_timestamp, align 1
  %tobool7.i.i.i = trunc i8 %11 to i1
  br i1 %tobool7.i.i.i, label %if.then8.i.i.i, label %if.else.i.i.i

if.then8.i.i.i:                                   ; preds = %if.then.i.i.i
  %call9.i.i.i = call i32 @gettimeofday(ptr noundef nonnull %_now.i.i.i, ptr noundef null) #17
  %call10.i.i.i = tail call i32 @qemu_get_thread_id() #17
  %12 = load i64, ptr %_now.i.i.i, align 8
  %tv_usec.i.i.i = getelementptr inbounds nuw i8, ptr %_now.i.i.i, i64 8
  %13 = load i64, ptr %tv_usec.i.i.i, align 8
  tail call void (ptr, ...) @qemu_log(ptr noundef nonnull @.str.88, i32 noundef %call10.i.i.i, i64 noundef %12, i64 noundef %13, ptr noundef nonnull %warn) #17
  br label %ehci_trace_guest_bug.exit

if.else.i.i.i:                                    ; preds = %if.then.i.i.i
  tail call void (ptr, ...) @qemu_log(ptr noundef nonnull @.str.89, ptr noundef nonnull %warn) #17
  br label %ehci_trace_guest_bug.exit

ehci_trace_guest_bug.exit:                        ; preds = %if.then, %land.lhs.true5.i.i.i, %if.then8.i.i.i, %if.else.i.i.i
  call void @llvm.lifetime.end.p0(i64 16, ptr nonnull %_now.i.i.i)
  br label %do.body

do.body:                                          ; preds = %trace_usb_ehci_queue_action.exit, %ehci_trace_guest_bug.exit
  %next = getelementptr inbounds nuw i8, ptr %q, i64 8
  %14 = load ptr, ptr %next, align 8
  %cmp4.not = icmp eq ptr %14, null
  %tql_prev11 = getelementptr inbounds nuw i8, ptr %q, i64 16
  %15 = load ptr, ptr %tql_prev11, align 8
  br i1 %cmp4.not, label %if.else, label %if.then5

if.then5:                                         ; preds = %do.body
  %tql_prev9 = getelementptr inbounds nuw i8, ptr %14, i64 16
  store ptr %15, ptr %tql_prev9, align 8
  br label %if.end13

if.else:                                          ; preds = %do.body
  %tql_prev12 = getelementptr inbounds nuw i8, ptr %pqueues, i64 8
  store ptr %15, ptr %tql_prev12, align 8
  br label %if.end13

if.end13:                                         ; preds = %if.else, %if.then5
  %16 = load ptr, ptr %next, align 8
  store ptr %16, ptr %15, align 8
  tail call void @llvm.memset.p0.i64(ptr noundef nonnull align 8 dereferenceable(16) %next, i8 0, i64 16, i1 false)
  tail call void @g_free(ptr noundef nonnull %q) #17
  ret void
}